; dlltool --base-file C:\DOCUME~1\NC\LOCALS~1\Temp/cca01316.base --output-exp guichan_sdl.exp --dllname guichan_sdl.dll --output-def lib/libguichan_sdl.def --no-export-all-symbols --add-stdcall-alias --exclude-symbol=DllMainCRTStartup@12 --def C:\DOCUME~1\NC\LOCALS~1\Temp/cca01316.def --output-lib lib/libguichan_sdl.a
EXPORTS
;	gcn::SDLGraphics::_beginDraw()
	_ZN3gcn11SDLGraphics10_beginDrawEv @ 1
;	gcn::SDLGraphics::popClipArea()
	_ZN3gcn11SDLGraphics11popClipAreaEv @ 2
;	gcn::SDLGraphics::pushClipArea(gcn::Rectangle)
	_ZN3gcn11SDLGraphics12pushClipAreaENS_9RectangleE @ 3
;	gcn::SDLGraphics::drawRectangle(gcn::Rectangle const&)
	_ZN3gcn11SDLGraphics13drawRectangleERKNS_9RectangleE @ 4
;	gcn::SDLGraphics::fillRectangle(gcn::Rectangle const&)
	_ZN3gcn11SDLGraphics13fillRectangleERKNS_9RectangleE @ 5
;	gcn::SDLGraphics::drawSDLSurface(SDL_Surface*, SDL_Rect, SDL_Rect)
	_ZN3gcn11SDLGraphics14drawSDLSurfaceEP11SDL_Surface8SDL_RectS3_ @ 6
;	gcn::SDLGraphics::_endDraw()
	_ZN3gcn11SDLGraphics8_endDrawEv @ 7
;	gcn::SDLGraphics::drawLine(int, int, int, int)
	_ZN3gcn11SDLGraphics8drawLineEiiii @ 8
;	gcn::SDLGraphics::setColor(gcn::Color const&)
	_ZN3gcn11SDLGraphics8setColorERKNS_5ColorE @ 9
;	gcn::SDLGraphics::drawHLine(int, int, int)
	_ZN3gcn11SDLGraphics9drawHLineEiii @ 10
;	gcn::SDLGraphics::drawImage(gcn::Image const*, int, int, int, int, int, int)
	_ZN3gcn11SDLGraphics9drawImageEPKNS_5ImageEiiiiii @ 11
;	gcn::SDLGraphics::drawPoint(int, int)
	_ZN3gcn11SDLGraphics9drawPointEii @ 12
;	gcn::SDLGraphics::drawVLine(int, int, int)
	_ZN3gcn11SDLGraphics9drawVLineEiii @ 13
;	gcn::SDLGraphics::setTarget(SDL_Surface*)
	_ZN3gcn11SDLGraphics9setTargetEP11SDL_Surface @ 14
;	gcn::SDLGraphics::SDLGraphics()
	_ZN3gcn11SDLGraphicsC1Ev @ 15
;	gcn::SDLGraphics::SDLGraphics()
	_ZN3gcn11SDLGraphicsC2Ev @ 16
;	gcn::SDLImageLoader::loadSDLSurface(std::string const&)
	_ZN3gcn14SDLImageLoader14loadSDLSurfaceERKSs @ 17
;	gcn::SDLImageLoader::convertToStandardFormat(SDL_Surface*)
	_ZN3gcn14SDLImageLoader23convertToStandardFormatEP11SDL_Surface @ 18
;	gcn::SDLImageLoader::load(std::string const&, bool)
	_ZN3gcn14SDLImageLoader4loadERKSsb @ 19
;	gcn::SDLImage::convertToDisplayFormat()
	_ZN3gcn8SDLImage22convertToDisplayFormatEv @ 20
;	gcn::SDLImage::free()
	_ZN3gcn8SDLImage4freeEv @ 21
;	gcn::SDLImage::getPixel(int, int)
	_ZN3gcn8SDLImage8getPixelEii @ 22
;	gcn::SDLImage::putPixel(int, int, gcn::Color const&)
	_ZN3gcn8SDLImage8putPixelEiiRKNS_5ColorE @ 23
;	gcn::SDLImage::SDLImage(SDL_Surface*, bool)
	_ZN3gcn8SDLImageC1EP11SDL_Surfaceb @ 24
;	gcn::SDLImage::SDLImage(SDL_Surface*, bool)
	_ZN3gcn8SDLImageC2EP11SDL_Surfaceb @ 25
;	gcn::SDLImage::~SDLImage()
	_ZN3gcn8SDLImageD0Ev @ 26
;	gcn::SDLImage::~SDLImage()
	_ZN3gcn8SDLImageD1Ev @ 27
;	gcn::SDLImage::~SDLImage()
	_ZN3gcn8SDLImageD2Ev @ 28
;	gcn::SDLInput::_pollInput()
	_ZN3gcn8SDLInput10_pollInputEv @ 29
;	gcn::SDLInput::dequeueKeyInput()
	_ZN3gcn8SDLInput15dequeueKeyInputEv @ 30
;	gcn::SDLInput::isKeyQueueEmpty()
	_ZN3gcn8SDLInput15isKeyQueueEmptyEv @ 31
;	gcn::SDLInput::dequeueMouseInput()
	_ZN3gcn8SDLInput17dequeueMouseInputEv @ 32
;	gcn::SDLInput::isMouseQueueEmpty()
	_ZN3gcn8SDLInput17isMouseQueueEmptyEv @ 33
;	gcn::SDLInput::convertMouseButton(int)
	_ZN3gcn8SDLInput18convertMouseButtonEi @ 34
;	gcn::SDLInput::convertKeyCharacter(SDL_Event)
	_ZN3gcn8SDLInput19convertKeyCharacterE9SDL_Event @ 35
;	gcn::SDLInput::pushInput(SDL_Event)
	_ZN3gcn8SDLInput9pushInputE9SDL_Event @ 36
;	gcn::SDLInput::SDLInput()
	_ZN3gcn8SDLInputC1Ev @ 37
;	gcn::SDLInput::SDLInput()
	_ZN3gcn8SDLInputC2Ev @ 38
;	gcn::SDLGraphics::getColor() const
	_ZNK3gcn11SDLGraphics8getColorEv @ 39
;	gcn::SDLGraphics::getTarget() const
	_ZNK3gcn11SDLGraphics9getTargetEv @ 40
;	gcn::SDLImage::getSurface() const
	_ZNK3gcn8SDLImage10getSurfaceEv @ 41
;	gcn::SDLImage::getWidth() const
	_ZNK3gcn8SDLImage8getWidthEv @ 42
;	gcn::SDLImage::getHeight() const
	_ZNK3gcn8SDLImage9getHeightEv @ 43
;	vtable for gcn::SDLGraphics
	_ZTVN3gcn11SDLGraphicsE @ 44 DATA
;	vtable for gcn::SDLImageLoader
	_ZTVN3gcn14SDLImageLoaderE @ 45 DATA
;	vtable for gcn::SDLImage
	_ZTVN3gcn8SDLImageE @ 46 DATA
;	vtable for gcn::SDLInput
	_ZTVN3gcn8SDLInputE @ 47 DATA
	gcnSDL @ 48
